target datalayout = "e-m:e-p270:32:32-p271:32:32-p272:64:64-i64:64-i128:128-f80:128-n8:16:32:64-S128"
target triple = "x86_64-pc-linux-gnu"

@.str.26 = private unnamed_addr constant [18 x i8] c"assertion failed!\00", align 1

; Function Attrs: nounwind uwtable
define internal i32 @luaB_assert(ptr noundef %0) #0 {
  %2 = alloca i32, align 4
  %3 = alloca ptr, align 8
  store ptr %0, ptr %3, align 8, !tbaa !4
  %4 = load ptr, ptr %3, align 8, !tbaa !4
  %5 = call i32 @lua_toboolean(ptr noundef %4, i32 noundef 1)
  %6 = icmp ne i32 %5, 0
  %7 = zext i1 %6 to i32
  %8 = sext i32 %7 to i64
  %9 = call i64 @llvm.expect.i64(i64 %8, i64 1)
  %10 = icmp ne i64 %9, 0
  br i1 %10, label %11, label %14

11:                                               ; preds = %1
  %12 = load ptr, ptr %3, align 8, !tbaa !4
  %13 = call i32 @lua_gettop(ptr noundef %12)
  store i32 %13, ptr %2, align 4
  br label %23

14:                                               ; preds = %1
  %15 = load ptr, ptr %3, align 8, !tbaa !4
  call void @luaL_checkany(ptr noundef %15, i32 noundef 1)
  %16 = load ptr, ptr %3, align 8, !tbaa !4
  call void @lua_rotate(ptr noundef %16, i32 noundef 1, i32 noundef -1)
  %17 = load ptr, ptr %3, align 8, !tbaa !4
  call void @lua_settop(ptr noundef %17, i32 noundef -2)
  %18 = load ptr, ptr %3, align 8, !tbaa !4
  %19 = call ptr @lua_pushstring(ptr noundef %18, ptr noundef @.str.26)
  %20 = load ptr, ptr %3, align 8, !tbaa !4
  call void @lua_settop(ptr noundef %20, i32 noundef 1)
  %21 = load ptr, ptr %3, align 8, !tbaa !4
  %22 = call i32 @luaB_error(ptr noundef %21)
  store i32 %22, ptr %2, align 4
  br label %23

23:                                               ; preds = %14, %11
  %24 = load i32, ptr %2, align 4
  ret i32 %24
}