; Function Attrs: nounwind uwtable
define internal i32 @luaB_assert(ptr noundef %0) #0 {
  %2 = tail call i32 @lua_toboolean(ptr noundef %0, i32 noundef 1) #9
  %.not = icmp eq i32 %2, 0
  br i1 %.not, label %5, label %3, !prof !4

3:                                                ; preds = %1
  %4 = tail call i32 @lua_gettop(ptr noundef %0) #9
  br label %8

5:                                                ; preds = %1
  tail call void @luaL_checkany(ptr noundef %0, i32 noundef 1) #9
  tail call void @lua_rotate(ptr noundef %0, i32 noundef 1, i32 noundef -1) #9
  tail call void @lua_settop(ptr noundef %0, i32 noundef -2) #9
  %6 = tail call ptr @lua_pushstring(ptr noundef %0, ptr noundef nonnull @.str.26) #9
  tail call void @lua_settop(ptr noundef %0, i32 noundef 1) #9
  %7 = tail call i32 @luaB_error(ptr noundef %0)
  br label %8

8:                                                ; preds = %5, %3
  %.0 = phi i32 [ %4, %3 ], [ %7, %5 ]
  ret i32 %.0
}